; Function Attrs: nounwind uwtable
define internal fastcc noundef ptr @get_or_init_obligations_for_class(ptr noundef %0) unnamed_addr #2 {
  %2 = alloca %struct._zval_struct, align 8
  %3 = load ptr, ptr getelementptr inbounds nuw (i8, ptr @compiler_globals, i64 536), align 8, !tbaa !220
  %.not = icmp eq ptr %3, null
  br i1 %.not, label %4, label %6

4:                                                ; preds = %1
  %5 = tail call noalias ptr @_emalloc_56() #17
  store ptr %5, ptr getelementptr inbounds nuw (i8, ptr @compiler_globals, i64 536), align 8, !tbaa !220
  tail call void @_zend_hash_init(ptr noundef %5, i32 noundef 0, ptr noundef nonnull @variance_obligation_ht_dtor, i1 noundef zeroext false) #17
  %.pre = load ptr, ptr getelementptr inbounds nuw (i8, ptr @compiler_globals, i64 536), align 8, !tbaa !220
  br label %6

6:                                                ; preds = %4, %1
  %7 = phi ptr [ %.pre, %4 ], [ %3, %1 ]
  %8 = ptrtoint ptr %0 to i64
  %9 = tail call ptr @zend_hash_index_find(ptr noundef %7, i64 noundef %8) #17
  %.not.i = icmp eq ptr %9, null
  br i1 %.not.i, label %zend_hash_index_add_new_ptr.exit, label %zend_hash_index_find_ptr.exit

zend_hash_index_find_ptr.exit:                    ; preds = %6
  %10 = load ptr, ptr %9, align 8, !tbaa !21, !nonnull !81, !noundef !81
  br label %18

zend_hash_index_add_new_ptr.exit:                 ; preds = %6
  %11 = tail call noalias ptr @_emalloc_56() #17
  tail call void @_zend_hash_init(ptr noundef %11, i32 noundef 0, ptr noundef nonnull @variance_obligation_dtor, i1 noundef zeroext false) #17
  %12 = load ptr, ptr getelementptr inbounds nuw (i8, ptr @compiler_globals, i64 536), align 8, !tbaa !220
  call void @llvm.lifetime.start.p0(i64 16, ptr nonnull %2) #17
  store ptr %11, ptr %2, align 8, !tbaa !21
  %13 = getelementptr inbounds nuw i8, ptr %2, i64 8
  store i32 13, ptr %13, align 8, !tbaa !21
  %14 = call ptr @zend_hash_index_add_new(ptr noundef %12, i64 noundef %8, ptr noundef nonnull %2) #17
  call void @llvm.lifetime.end.p0(i64 16, ptr nonnull %2) #17
  %15 = getelementptr inbounds nuw i8, ptr %0, i64 28
  %16 = load i32, ptr %15, align 4, !tbaa !22
  %17 = or i32 %16, 524288
  store i32 %17, ptr %15, align 4, !tbaa !22
  br label %18

18:                                               ; preds = %zend_hash_index_find_ptr.exit, %zend_hash_index_add_new_ptr.exit
  %.0 = phi ptr [ %11, %zend_hash_index_add_new_ptr.exit ], [ %10, %zend_hash_index_find_ptr.exit ]
  ret ptr %.0
}